ccollections
defaultdict
p0
(cvisualization.plotting
recursive_defaultdict
p1
tp2
Rp3
S'Mean Grid'
p4
g0
(g1
tp5
Rp6
S'None'
p7
g0
(g1
tp8
Rp9
S'root_mean_squared_error'
p10
((lp11
I1
aI2
aI3
a(lp12
cnumpy.core.multiarray
scalar
p13
(cnumpy
dtype
p14
(S'f8'
p15
I0
I1
tp16
Rp17
(I3
S'<'
p18
NNNI-1
I-1
I0
tp19
bS')\xcc\r\x14k=\xf9?'
p20
tp21
Rp22
ag13
(g17
S'\xbf\x91;\x0fk=\xf9?'
p23
tp24
Rp25
ag13
(g17
S'y\x9c\xfe\x8ek=\xf9?'
p26
tp27
Rp28
atp29
sS'neg_log_likelihood_poisson'
p30
((lp31
I1
aI2
aI3
a(lp32
g13
(g17
S'\xdbG#\xda\xc5c&A'
p33
tp34
Rp35
ag13
(g17
S'\xc3\xe5!S\xc7c&A'
p36
tp37
Rp38
ag13
(g17
S'\xe2\xfe\xbe\xe2\xa4c&A'
p39
tp40
Rp41
atp42
sS'mean_absolute_error'
p43
((lp44
I1
aI2
aI3
a(lp45
g13
(g17
S'\xc55j\xe4\xf1\xb7\xb7?'
p46
tp47
Rp48
ag13
(g17
S'\x80\x86ks\xf1\xb7\xb7?'
p49
tp50
Rp51
ag13
(g17
S'-\x11\xe7\xdb\xfc\xb7\xb7?'
p52
tp53
Rp54
atp55
sssS'Autoregressive Grid'
p56
g0
(g1
tp57
Rp58
g7
g0
(g1
tp59
Rp60
g10
((lp61
I1
aI2
aI3
a(lp62
g13
(g17
S'\x9c\x93\x94\x8c\xca}\xf8?'
p63
tp64
Rp65
ag13
(g17
S'\xd8\xaa\xc6\x98\xfb\x88\xfc?'
p66
tp67
Rp68
ag13
(g17
S'\xd5\xbey\xa4\x8d\x8d\xfe?'
p69
tp70
Rp71
atp72
sg30
((lp73
I1
aI2
aI3
a(lp74
g13
(g17
S'\x8ae\x9d\x92\x86\xd1\x12A'
p75
tp76
Rp77
ag13
(g17
S'jH\xc5\x9c\x07\x83!A'
p78
tp79
Rp80
ag13
(g17
S"\x01\xf4\x13\te\xe8'A"
p81
tp82
Rp83
atp84
sg43
((lp85
I1
aI2
aI3
a(lp86
g13
(g17
S'\x8a\xffV\x9f^2\xaa?'
p87
tp88
Rp89
ag13
(g17
S'\xf9\xa1\x8ed\xebi\xb0?'
p90
tp91
Rp92
ag13
(g17
S'\xe8\x07\xe2\xa2\xd2E\xb2?'
p93
tp94
Rp95
atp96
sss.